target datalayout = "e-m:e-p270:32:32-p271:32:32-p272:64:64-i64:64-i128:128-f80:128-n8:16:32:64-S128"
target triple = "x86_64-pc-linux-gnu"

@.str = private unnamed_addr constant [29 x i8] c"lua_islightuserdata(lua, -1)\00", align 1
@.str.1 = private unnamed_addr constant [13 x i8] c"script_lua.c\00", align 1
@.str.2 = private unnamed_addr constant [4 x i8] c"ptr\00", align 1

; Function Attrs: nounwind uwtable
define dso_local ptr @luaGetFromRegistry(ptr noundef %0, ptr noundef %1) #0 {
  %3 = alloca ptr, align 8
  %4 = alloca ptr, align 8
  %5 = alloca ptr, align 8
  %6 = alloca ptr, align 8
  store ptr %0, ptr %4, align 8, !tbaa !5
  store ptr %1, ptr %5, align 8, !tbaa !10
  %7 = load ptr, ptr %4, align 8, !tbaa !5
  %8 = load ptr, ptr %5, align 8, !tbaa !10
  call void @lua_pushstring(ptr noundef %7, ptr noundef %8)
  %9 = load ptr, ptr %4, align 8, !tbaa !5
  call void @lua_gettable(ptr noundef %9, i32 noundef -10000)
  %10 = load ptr, ptr %4, align 8, !tbaa !5
  %11 = call i32 @lua_type(ptr noundef %10, i32 noundef -1)
  %12 = icmp eq i32 %11, 0
  br i1 %12, label %13, label %15

13:                                               ; preds = %2
  %14 = load ptr, ptr %4, align 8, !tbaa !5
  call void @lua_settop(ptr noundef %14, i32 noundef -2)
  store ptr null, ptr %3, align 8
  br label %45

15:                                               ; preds = %2
  %16 = load ptr, ptr %4, align 8, !tbaa !5
  %17 = call i32 @lua_type(ptr noundef %16, i32 noundef -1)
  %18 = icmp eq i32 %17, 2
  %19 = xor i1 %18, true
  %20 = xor i1 %19, true
  %21 = zext i1 %20 to i32
  %22 = sext i32 %21 to i64
  %23 = call i64 @llvm.expect.i64(i64 %22, i64 1)
  %24 = icmp ne i64 %23, 0
  br i1 %24, label %25, label %26

25:                                               ; preds = %15
  br label %28

26:                                               ; preds = %15
  call void @_serverAssert(ptr noundef @.str, ptr noundef @.str.1, i32 noundef 161)
  call void @abort() #11
  unreachable

27:                                               ; No predecessors!
  br label %28

28:                                               ; preds = %27, %25
  call void @llvm.lifetime.start.p0(i64 8, ptr %6) #12
  %29 = load ptr, ptr %4, align 8, !tbaa !5
  %30 = call ptr @lua_topointer(ptr noundef %29, i32 noundef -1)
  store ptr %30, ptr %6, align 8, !tbaa !12
  %31 = load ptr, ptr %6, align 8, !tbaa !12
  %32 = icmp ne ptr %31, null
  %33 = xor i1 %32, true
  %34 = xor i1 %33, true
  %35 = zext i1 %34 to i32
  %36 = sext i32 %35 to i64
  %37 = call i64 @llvm.expect.i64(i64 %36, i64 1)
  %38 = icmp ne i64 %37, 0
  br i1 %38, label %39, label %40

39:                                               ; preds = %28
  br label %42

40:                                               ; preds = %28
  call void @_serverAssert(ptr noundef @.str.2, ptr noundef @.str.1, i32 noundef 164)
  call void @abort() #11
  unreachable

41:                                               ; No predecessors!
  br label %42

42:                                               ; preds = %41, %39
  %43 = load ptr, ptr %4, align 8, !tbaa !5
  call void @lua_settop(ptr noundef %43, i32 noundef -2)
  %44 = load ptr, ptr %6, align 8, !tbaa !12
  store ptr %44, ptr %3, align 8
  call void @llvm.lifetime.end.p0(i64 8, ptr %6) #12
  br label %45

45:                                               ; preds = %42, %13
  %46 = load ptr, ptr %3, align 8
  ret ptr %46
}