; Function Attrs: nounwind uwtable
define dso_local ptr @luaGetFromRegistry(ptr noundef %0, ptr noundef %1) local_unnamed_addr #0 {
  tail call void @lua_pushstring(ptr noundef %0, ptr noundef %1) #11
  tail call void @lua_gettable(ptr noundef %0, i32 noundef -10000) #11
  %3 = tail call i32 @lua_type(ptr noundef %0, i32 noundef -1) #11
  %4 = icmp eq i32 %3, 0
  br i1 %4, label %12, label %5

5:                                                ; preds = %2
  %6 = tail call i32 @lua_type(ptr noundef %0, i32 noundef -1) #11
  %7 = icmp eq i32 %6, 2
  br i1 %7, label %9, label %8, !prof !5

8:                                                ; preds = %5
  tail call void @_serverAssert(ptr noundef nonnull @.str, ptr noundef nonnull @.str.1, i32 noundef 161) #11
  tail call void @abort() #12
  unreachable

9:                                                ; preds = %5
  %10 = tail call ptr @lua_topointer(ptr noundef %0, i32 noundef -1) #11
  %.not = icmp eq ptr %10, null
  br i1 %.not, label %11, label %12, !prof !6

11:                                               ; preds = %9
  tail call void @_serverAssert(ptr noundef nonnull @.str.2, ptr noundef nonnull @.str.1, i32 noundef 164) #11
  tail call void @abort() #12
  unreachable

12:                                               ; preds = %9, %2
  %.0 = phi ptr [ null, %2 ], [ %10, %9 ]
  tail call void @lua_settop(ptr noundef %0, i32 noundef -2) #11
  ret ptr %.0
}